; Function Attrs: nounwind uwtable
define ptr @l_Lake_LeanExe_toLeanLib(ptr noundef %0) local_unnamed_addr #0 {
  %.val = load i32, ptr %0, align 4, !tbaa !8
  %2 = icmp eq i32 %.val, 1
  br i1 %2, label %3, label %7

3:                                                ; preds = %1
  %4 = getelementptr inbounds nuw i8, ptr %0, i64 24
  %5 = load ptr, ptr %4, align 8, !tbaa !4
  %6 = tail call ptr @l_Lake_LeanExeConfig_toLeanLibConfig(ptr poison, ptr noundef %5)
  store ptr %6, ptr %4, align 8, !tbaa !4
  br label %55

7:                                                ; preds = %1
  %8 = getelementptr inbounds nuw i8, ptr %0, i64 8
  %9 = load ptr, ptr %8, align 8, !tbaa !4
  %10 = getelementptr inbounds nuw i8, ptr %0, i64 16
  %11 = load ptr, ptr %10, align 8, !tbaa !4
  %12 = getelementptr inbounds nuw i8, ptr %0, i64 24
  %13 = load ptr, ptr %12, align 8, !tbaa !4
  %14 = ptrtoint ptr %13 to i64
  %15 = and i64 %14, 1
  %.not = icmp eq i64 %15, 0
  br i1 %.not, label %16, label %lean_inc.exit26

16:                                               ; preds = %7
  %.val.i = load i32, ptr %13, align 4, !tbaa !8
  %17 = icmp sgt i32 %.val.i, 0
  br i1 %17, label %18, label %20, !prof !11

18:                                               ; preds = %16
  %19 = add nuw i32 %.val.i, 1
  store i32 %19, ptr %13, align 4, !tbaa !8
  br label %lean_inc.exit26

20:                                               ; preds = %16
  %.not.i27 = icmp eq i32 %.val.i, 0
  br i1 %.not.i27, label %lean_inc.exit26, label %21

21:                                               ; preds = %20
  tail call void @lean_inc_ref_cold(ptr noundef nonnull %13) #4
  br label %lean_inc.exit26

lean_inc.exit26:                                  ; preds = %21, %20, %18, %7
  %22 = ptrtoint ptr %11 to i64
  %23 = and i64 %22, 1
  %.not34 = icmp eq i64 %23, 0
  br i1 %.not34, label %24, label %lean_inc.exit25

24:                                               ; preds = %lean_inc.exit26
  %.val.i28 = load i32, ptr %11, align 4, !tbaa !8
  %25 = icmp sgt i32 %.val.i28, 0
  br i1 %25, label %26, label %28, !prof !11

26:                                               ; preds = %24
  %27 = add nuw i32 %.val.i28, 1
  store i32 %27, ptr %11, align 4, !tbaa !8
  br label %lean_inc.exit25

28:                                               ; preds = %24
  %.not.i29 = icmp eq i32 %.val.i28, 0
  br i1 %.not.i29, label %lean_inc.exit25, label %29

29:                                               ; preds = %28
  tail call void @lean_inc_ref_cold(ptr noundef nonnull %11) #4
  br label %lean_inc.exit25

lean_inc.exit25:                                  ; preds = %29, %28, %26, %lean_inc.exit26
  %30 = ptrtoint ptr %9 to i64
  %31 = and i64 %30, 1
  %.not35 = icmp eq i64 %31, 0
  br i1 %.not35, label %32, label %lean_inc.exit

32:                                               ; preds = %lean_inc.exit25
  %.val.i31 = load i32, ptr %9, align 4, !tbaa !8
  %33 = icmp sgt i32 %.val.i31, 0
  br i1 %33, label %34, label %36, !prof !11

34:                                               ; preds = %32
  %35 = add nuw i32 %.val.i31, 1
  store i32 %35, ptr %9, align 4, !tbaa !8
  br label %lean_inc.exit

36:                                               ; preds = %32
  %.not.i32 = icmp eq i32 %.val.i31, 0
  br i1 %.not.i32, label %lean_inc.exit, label %37

37:                                               ; preds = %36
  tail call void @lean_inc_ref_cold(ptr noundef nonnull %9) #4
  br label %lean_inc.exit

lean_inc.exit:                                    ; preds = %37, %36, %34, %lean_inc.exit25
  %38 = ptrtoint ptr %0 to i64
  %39 = and i64 %38, 1
  %.not36 = icmp eq i64 %39, 0
  br i1 %.not36, label %40, label %lean_dec.exit

40:                                               ; preds = %lean_inc.exit
  %41 = load i32, ptr %0, align 4, !tbaa !8
  %42 = icmp sgt i32 %41, 1
  br i1 %42, label %43, label %45, !prof !11

43:                                               ; preds = %40
  %44 = add nsw i32 %41, -1
  store i32 %44, ptr %0, align 4, !tbaa !8
  br label %lean_dec.exit

45:                                               ; preds = %40
  %.not.i = icmp eq i32 %41, 0
  br i1 %.not.i, label %lean_dec.exit, label %46

46:                                               ; preds = %45
  tail call void @lean_dec_ref_cold(ptr noundef nonnull %0) #4
  br label %lean_dec.exit

lean_dec.exit:                                    ; preds = %46, %45, %43, %lean_inc.exit
  %47 = tail call ptr @l_Lake_LeanExeConfig_toLeanLibConfig(ptr poison, ptr noundef %13)
  tail call void @lean_inc_heartbeat() #4
  %48 = tail call noalias ptr @mi_malloc_small(i64 noundef 32) #4
  %49 = icmp eq ptr %48, null
  br i1 %49, label %50, label %lean_alloc_ctor.exit

50:                                               ; preds = %lean_dec.exit
  tail call void @lean_internal_panic_out_of_memory() #5
  unreachable

lean_alloc_ctor.exit:                             ; preds = %lean_dec.exit
  %51 = getelementptr inbounds nuw i8, ptr %48, i64 4
  store i32 1, ptr %48, align 4, !tbaa !8
  store i32 196640, ptr %51, align 4
  %52 = getelementptr inbounds nuw i8, ptr %48, i64 8
  store ptr %9, ptr %52, align 8, !tbaa !4
  %53 = getelementptr inbounds nuw i8, ptr %48, i64 16
  store ptr %11, ptr %53, align 8, !tbaa !4
  %54 = getelementptr inbounds nuw i8, ptr %48, i64 24
  store ptr %47, ptr %54, align 8, !tbaa !4
  br label %55

55:                                               ; preds = %lean_alloc_ctor.exit, %3
  %.0 = phi ptr [ %0, %3 ], [ %48, %lean_alloc_ctor.exit ]
  ret ptr %.0
}